target datalayout = "e-m:e-p270:32:32-p271:32:32-p272:64:64-i64:64-i128:128-f80:128-n8:16:32:64-S128"
target triple = "x86_64-pc-linux-gnu"

%"struct.rocksdb::DBOpenLogRecordReadReporter" = type { %"class.rocksdb::log::Reader::Reporter", ptr, ptr, ptr, ptr, ptr, i64 }
%"class.rocksdb::log::Reader::Reporter" = type { ptr }

@.str.43 = private unnamed_addr constant [120 x i8] c"generated/home/dtcxzyw/WorkSpace/Projects/compilers/llvm-opt-benchmark/bench/rocksdb/rocksdb/db/db_impl/db_impl_open.cc\00", align 1
@.str.84 = private unnamed_addr constant [51 x i8] c"[%s:1125] %s: dropping %d bytes; possibly recycled\00", align 1

; Function Attrs: inlinehint mustprogress nounwind uwtable
define linkonce_odr noundef ptr @_Z23RocksLogShorterFileNamePKc(ptr noundef %0) #1 comdat {
  %2 = alloca ptr, align 8
  store ptr %0, ptr %2, align 8, !tbaa !31
  %3 = load ptr, ptr %2, align 8, !tbaa !31
  %4 = getelementptr inbounds nuw i8, ptr %3, i64 93
  ret ptr %4
}

; Function Attrs: mustprogress uwtable
define void @_ZN7rocksdb27DBOpenLogRecordReadReporter12OldLogRecordEm(ptr noundef nonnull align 8 dereferenceable(56) %0, i64 noundef %1) unnamed_addr #5 align 2 {
  %3 = alloca ptr, align 8
  %4 = alloca i64, align 8
  store ptr %0, ptr %3, align 8, !tbaa !1117
  store i64 %1, ptr %4, align 8, !tbaa !4
  %5 = load ptr, ptr %3, align 8
  %6 = getelementptr inbounds nuw %"struct.rocksdb::DBOpenLogRecordReadReporter", ptr %5, i32 0, i32 5
  %7 = load ptr, ptr %6, align 8, !tbaa !1125
  %8 = icmp ne ptr %7, null
  br i1 %8, label %9, label %12

9:                                                ; preds = %2
  %10 = getelementptr inbounds nuw %"struct.rocksdb::DBOpenLogRecordReadReporter", ptr %5, i32 0, i32 5
  %11 = load ptr, ptr %10, align 8, !tbaa !1125
  store i8 1, ptr %11, align 1, !tbaa !54
  br label %12

12:                                               ; preds = %9, %2
  %13 = getelementptr inbounds nuw %"struct.rocksdb::DBOpenLogRecordReadReporter", ptr %5, i32 0, i32 2
  %14 = load ptr, ptr %13, align 8, !tbaa !1119
  %15 = call noundef ptr @_Z23RocksLogShorterFileNamePKc(ptr noundef @.str.43)
  %16 = getelementptr inbounds nuw %"struct.rocksdb::DBOpenLogRecordReadReporter", ptr %5, i32 0, i32 3
  %17 = load ptr, ptr %16, align 8, !tbaa !1123
  %18 = load i64, ptr %4, align 8, !tbaa !4
  %19 = trunc i64 %18 to i32
  call void (i8, ptr, ptr, ...) @_ZN7rocksdb3LogENS_12InfoLogLevelEPNS_6LoggerEPKcz(i8 noundef zeroext 2, ptr noundef %14, ptr noundef @.str.84, ptr noundef %15, ptr noundef %17, i32 noundef %19)
  ret void
}