; Function Attrs: mustprogress uwtable
define void @_ZN7rocksdb27DBOpenLogRecordReadReporter12OldLogRecordEm(ptr noundef nonnull readonly align 8 captures(none) dereferenceable(56) %0, i64 noundef %1) unnamed_addr #4 align 2 {
  %3 = getelementptr inbounds nuw i8, ptr %0, i64 40
  %4 = load ptr, ptr %3, align 8, !tbaa !1116
  %.not = icmp eq ptr %4, null
  br i1 %.not, label %6, label %5

5:                                                ; preds = %2
  store i8 1, ptr %4, align 1, !tbaa !198
  br label %6

6:                                                ; preds = %5, %2
  %7 = getelementptr inbounds nuw i8, ptr %0, i64 16
  %8 = load ptr, ptr %7, align 8, !tbaa !1108
  %9 = getelementptr inbounds nuw i8, ptr %0, i64 24
  %10 = load ptr, ptr %9, align 8, !tbaa !1114
  %11 = trunc i64 %1 to i32
  tail call void (i8, ptr, ptr, ...) @_ZN7rocksdb3LogENS_12InfoLogLevelEPNS_6LoggerEPKcz(i8 noundef zeroext 2, ptr noundef %8, ptr noundef nonnull @.str.84, ptr noundef nonnull getelementptr inbounds nuw (i8, ptr @.str.43, i64 93), ptr noundef %10, i32 noundef %11)
  ret void
}